target datalayout = "e-m:e-p270:32:32-p271:32:32-p272:64:64-i64:64-i128:128-f80:128-n8:16:32:64-S128"
target triple = "x86_64-pc-linux-gnu"

%struct.FuncState = type { ptr, ptr, ptr, ptr, ptr, ptr, i32, i32, i32, i32, i32, i32, i16, i8, [60 x %struct.upvaldesc], [200 x i16] }
%struct.upvaldesc = type { i8, i8 }
%struct.Proto = type { ptr, i8, i8, ptr, ptr, ptr, ptr, ptr, ptr, ptr, i32, i32, i32, i32, i32, i32, i32, i32, ptr, i8, i8, i8, i8 }

@luaP_opmodes = external hidden constant [38 x i8], align 16
@.str.1 = private unnamed_addr constant [27 x i8] c"control structure too long\00", align 1
@.str.3 = private unnamed_addr constant [19 x i8] c"code size overflow\00", align 1

; Function Attrs: nounwind uwtable
define internal ptr @getjumpcontrol(ptr noundef %0, i32 noundef %1) #0 {
  %3 = alloca ptr, align 8
  %4 = alloca ptr, align 8
  %5 = alloca i32, align 4
  %6 = alloca ptr, align 8
  %7 = alloca i32, align 4
  store ptr %0, ptr %4, align 8, !tbaa !4
  store i32 %1, ptr %5, align 4, !tbaa !9
  call void @llvm.lifetime.start.p0(i64 8, ptr %6) #6
  %8 = load ptr, ptr %4, align 8, !tbaa !4
  %9 = getelementptr inbounds nuw %struct.FuncState, ptr %8, i32 0, i32 0
  %10 = load ptr, ptr %9, align 8, !tbaa !21
  %11 = getelementptr inbounds nuw %struct.Proto, ptr %10, i32 0, i32 4
  %12 = load ptr, ptr %11, align 8, !tbaa !22
  %13 = load i32, ptr %5, align 4, !tbaa !9
  %14 = sext i32 %13 to i64
  %15 = getelementptr inbounds i32, ptr %12, i64 %14
  store ptr %15, ptr %6, align 8, !tbaa !31
  %16 = load i32, ptr %5, align 4, !tbaa !9
  %17 = icmp sge i32 %16, 1
  br i1 %17, label %18, label %33

18:                                               ; preds = %2
  %19 = load ptr, ptr %6, align 8, !tbaa !31
  %20 = getelementptr inbounds i32, ptr %19, i64 -1
  %21 = load i32, ptr %20, align 4, !tbaa !9
  %22 = lshr i32 %21, 0
  %23 = and i32 %22, 63
  %24 = zext i32 %23 to i64
  %25 = getelementptr inbounds nuw [38 x i8], ptr @luaP_opmodes, i64 0, i64 %24
  %26 = load i8, ptr %25, align 1, !tbaa !46
  %27 = zext i8 %26 to i32
  %28 = and i32 %27, 128
  %29 = icmp ne i32 %28, 0
  br i1 %29, label %30, label %33

30:                                               ; preds = %18
  %31 = load ptr, ptr %6, align 8, !tbaa !31
  %32 = getelementptr inbounds i32, ptr %31, i64 -1
  store ptr %32, ptr %3, align 8
  store i32 1, ptr %7, align 4
  br label %35

33:                                               ; preds = %18, %2
  %34 = load ptr, ptr %6, align 8, !tbaa !31
  store ptr %34, ptr %3, align 8
  store i32 1, ptr %7, align 4
  br label %35

35:                                               ; preds = %33, %30
  call void @llvm.lifetime.end.p0(i64 8, ptr %6) #6
  %36 = load ptr, ptr %3, align 8
  ret ptr %36
}

; Function Attrs: nounwind uwtable
define internal void @fixjump(ptr noundef %0, i32 noundef %1, i32 noundef %2) #0 {
  %4 = alloca ptr, align 8
  %5 = alloca i32, align 4
  %6 = alloca i32, align 4
  %7 = alloca ptr, align 8
  %8 = alloca i32, align 4
  store ptr %0, ptr %4, align 8, !tbaa !4
  store i32 %1, ptr %5, align 4, !tbaa !9
  store i32 %2, ptr %6, align 4, !tbaa !9
  call void @llvm.lifetime.start.p0(i64 8, ptr %7) #6
  %9 = load ptr, ptr %4, align 8, !tbaa !4
  %10 = getelementptr inbounds nuw %struct.FuncState, ptr %9, i32 0, i32 0
  %11 = load ptr, ptr %10, align 8, !tbaa !21
  %12 = getelementptr inbounds nuw %struct.Proto, ptr %11, i32 0, i32 4
  %13 = load ptr, ptr %12, align 8, !tbaa !22
  %14 = load i32, ptr %5, align 4, !tbaa !9
  %15 = sext i32 %14 to i64
  %16 = getelementptr inbounds i32, ptr %13, i64 %15
  store ptr %16, ptr %7, align 8, !tbaa !31
  call void @llvm.lifetime.start.p0(i64 4, ptr %8) #6
  %17 = load i32, ptr %6, align 4, !tbaa !9
  %18 = load i32, ptr %5, align 4, !tbaa !9
  %19 = add nsw i32 %18, 1
  %20 = sub nsw i32 %17, %19
  store i32 %20, ptr %8, align 4, !tbaa !9
  %21 = load i32, ptr %8, align 4, !tbaa !9
  %22 = call i32 @llvm.abs.i32(i32 %21, i1 true)
  %23 = icmp sgt i32 %22, 131071
  br i1 %23, label %24, label %28

24:                                               ; preds = %3
  %25 = load ptr, ptr %4, align 8, !tbaa !4
  %26 = getelementptr inbounds nuw %struct.FuncState, ptr %25, i32 0, i32 3
  %27 = load ptr, ptr %26, align 8, !tbaa !32
  call void @luaX_syntaxerror(ptr noundef %27, ptr noundef @.str.1)
  br label %28

28:                                               ; preds = %24, %3
  %29 = load ptr, ptr %7, align 8, !tbaa !31
  %30 = load i32, ptr %29, align 4, !tbaa !9
  %31 = and i32 %30, 16383
  %32 = load i32, ptr %8, align 4, !tbaa !9
  %33 = add nsw i32 %32, 131071
  %34 = shl i32 %33, 14
  %35 = and i32 %34, -16384
  %36 = or i32 %31, %35
  %37 = load ptr, ptr %7, align 8, !tbaa !31
  store i32 %36, ptr %37, align 4, !tbaa !9
  call void @llvm.lifetime.end.p0(i64 4, ptr %8) #6
  call void @llvm.lifetime.end.p0(i64 8, ptr %7) #6
  ret void
}

; Function Attrs: nounwind uwtable
define internal i32 @patchtestreg(ptr noundef %0, i32 noundef %1, i32 noundef %2) #0 {
  %4 = alloca i32, align 4
  %5 = alloca ptr, align 8
  %6 = alloca i32, align 4
  %7 = alloca i32, align 4
  %8 = alloca ptr, align 8
  %9 = alloca i32, align 4
  store ptr %0, ptr %5, align 8, !tbaa !4
  store i32 %1, ptr %6, align 4, !tbaa !9
  store i32 %2, ptr %7, align 4, !tbaa !9
  call void @llvm.lifetime.start.p0(i64 8, ptr %8) #6
  %10 = load ptr, ptr %5, align 8, !tbaa !4
  %11 = load i32, ptr %6, align 4, !tbaa !9
  %12 = call ptr @getjumpcontrol(ptr noundef %10, i32 noundef %11)
  store ptr %12, ptr %8, align 8, !tbaa !31
  %13 = load ptr, ptr %8, align 8, !tbaa !31
  %14 = load i32, ptr %13, align 4, !tbaa !9
  %15 = lshr i32 %14, 0
  %16 = and i32 %15, 63
  %17 = icmp ne i32 %16, 27
  br i1 %17, label %18, label %19

18:                                               ; preds = %3
  store i32 0, ptr %4, align 4
  store i32 1, ptr %9, align 4
  br label %54

19:                                               ; preds = %3
  %20 = load i32, ptr %7, align 4, !tbaa !9
  %21 = icmp ne i32 %20, 255
  br i1 %21, label %22, label %38

22:                                               ; preds = %19
  %23 = load i32, ptr %7, align 4, !tbaa !9
  %24 = load ptr, ptr %8, align 8, !tbaa !31
  %25 = load i32, ptr %24, align 4, !tbaa !9
  %26 = lshr i32 %25, 23
  %27 = and i32 %26, 511
  %28 = icmp ne i32 %23, %27
  br i1 %28, label %29, label %38

29:                                               ; preds = %22
  %30 = load ptr, ptr %8, align 8, !tbaa !31
  %31 = load i32, ptr %30, align 4, !tbaa !9
  %32 = and i32 %31, -16321
  %33 = load i32, ptr %7, align 4, !tbaa !9
  %34 = shl i32 %33, 6
  %35 = and i32 %34, 16320
  %36 = or i32 %32, %35
  %37 = load ptr, ptr %8, align 8, !tbaa !31
  store i32 %36, ptr %37, align 4, !tbaa !9
  br label %53

38:                                               ; preds = %22, %19
  %39 = load ptr, ptr %8, align 8, !tbaa !31
  %40 = load i32, ptr %39, align 4, !tbaa !9
  %41 = lshr i32 %40, 23
  %42 = and i32 %41, 511
  %43 = shl i32 %42, 6
  %44 = or i32 26, %43
  %45 = or i32 %44, 0
  %46 = load ptr, ptr %8, align 8, !tbaa !31
  %47 = load i32, ptr %46, align 4, !tbaa !9
  %48 = lshr i32 %47, 14
  %49 = and i32 %48, 511
  %50 = shl i32 %49, 14
  %51 = or i32 %45, %50
  %52 = load ptr, ptr %8, align 8, !tbaa !31
  store i32 %51, ptr %52, align 4, !tbaa !9
  br label %53

53:                                               ; preds = %38, %29
  store i32 1, ptr %4, align 4
  store i32 1, ptr %9, align 4
  br label %54

54:                                               ; preds = %53, %18
  call void @llvm.lifetime.end.p0(i64 8, ptr %8) #6
  %55 = load i32, ptr %4, align 4
  ret i32 %55
}

; Function Attrs: nounwind uwtable
define internal i32 @getjump(ptr noundef %0, i32 noundef %1) #0 {
  %3 = alloca i32, align 4
  %4 = alloca ptr, align 8
  %5 = alloca i32, align 4
  %6 = alloca i32, align 4
  %7 = alloca i32, align 4
  store ptr %0, ptr %4, align 8, !tbaa !4
  store i32 %1, ptr %5, align 4, !tbaa !9
  call void @llvm.lifetime.start.p0(i64 4, ptr %6) #6
  %8 = load ptr, ptr %4, align 8, !tbaa !4
  %9 = getelementptr inbounds nuw %struct.FuncState, ptr %8, i32 0, i32 0
  %10 = load ptr, ptr %9, align 8, !tbaa !21
  %11 = getelementptr inbounds nuw %struct.Proto, ptr %10, i32 0, i32 4
  %12 = load ptr, ptr %11, align 8, !tbaa !22
  %13 = load i32, ptr %5, align 4, !tbaa !9
  %14 = sext i32 %13 to i64
  %15 = getelementptr inbounds i32, ptr %12, i64 %14
  %16 = load i32, ptr %15, align 4, !tbaa !9
  %17 = lshr i32 %16, 14
  %18 = and i32 %17, 262143
  %19 = sub nsw i32 %18, 131071
  store i32 %19, ptr %6, align 4, !tbaa !9
  %20 = load i32, ptr %6, align 4, !tbaa !9
  %21 = icmp eq i32 %20, -1
  br i1 %21, label %22, label %23

22:                                               ; preds = %2
  store i32 -1, ptr %3, align 4
  store i32 1, ptr %7, align 4
  br label %28

23:                                               ; preds = %2
  %24 = load i32, ptr %5, align 4, !tbaa !9
  %25 = add nsw i32 %24, 1
  %26 = load i32, ptr %6, align 4, !tbaa !9
  %27 = add nsw i32 %25, %26
  store i32 %27, ptr %3, align 4
  store i32 1, ptr %7, align 4
  br label %28

28:                                               ; preds = %23, %22
  call void @llvm.lifetime.end.p0(i64 4, ptr %6) #6
  %29 = load i32, ptr %3, align 4
  ret i32 %29
}

; Function Attrs: nounwind uwtable
define internal void @patchlistaux(ptr noundef %0, i32 noundef %1, i32 noundef %2, i32 noundef %3, i32 noundef %4) #0 {
  %6 = alloca ptr, align 8
  %7 = alloca i32, align 4
  %8 = alloca i32, align 4
  %9 = alloca i32, align 4
  %10 = alloca i32, align 4
  %11 = alloca i32, align 4
  store ptr %0, ptr %6, align 8, !tbaa !4
  store i32 %1, ptr %7, align 4, !tbaa !9
  store i32 %2, ptr %8, align 4, !tbaa !9
  store i32 %3, ptr %9, align 4, !tbaa !9
  store i32 %4, ptr %10, align 4, !tbaa !9
  br label %12

12:                                               ; preds = %32, %5
  %13 = load i32, ptr %7, align 4, !tbaa !9
  %14 = icmp ne i32 %13, -1
  br i1 %14, label %15, label %34

15:                                               ; preds = %12
  call void @llvm.lifetime.start.p0(i64 4, ptr %11) #6
  %16 = load ptr, ptr %6, align 8, !tbaa !4
  %17 = load i32, ptr %7, align 4, !tbaa !9
  %18 = call i32 @getjump(ptr noundef %16, i32 noundef %17)
  store i32 %18, ptr %11, align 4, !tbaa !9
  %19 = load ptr, ptr %6, align 8, !tbaa !4
  %20 = load i32, ptr %7, align 4, !tbaa !9
  %21 = load i32, ptr %9, align 4, !tbaa !9
  %22 = call i32 @patchtestreg(ptr noundef %19, i32 noundef %20, i32 noundef %21)
  %23 = icmp ne i32 %22, 0
  br i1 %23, label %24, label %28

24:                                               ; preds = %15
  %25 = load ptr, ptr %6, align 8, !tbaa !4
  %26 = load i32, ptr %7, align 4, !tbaa !9
  %27 = load i32, ptr %8, align 4, !tbaa !9
  call void @fixjump(ptr noundef %25, i32 noundef %26, i32 noundef %27)
  br label %32

28:                                               ; preds = %15
  %29 = load ptr, ptr %6, align 8, !tbaa !4
  %30 = load i32, ptr %7, align 4, !tbaa !9
  %31 = load i32, ptr %10, align 4, !tbaa !9
  call void @fixjump(ptr noundef %29, i32 noundef %30, i32 noundef %31)
  br label %32

32:                                               ; preds = %28, %24
  %33 = load i32, ptr %11, align 4, !tbaa !9
  store i32 %33, ptr %7, align 4, !tbaa !9
  call void @llvm.lifetime.end.p0(i64 4, ptr %11) #6
  br label %12, !llvm.loop !41

34:                                               ; preds = %12
  ret void
}

; Function Attrs: nounwind uwtable
define internal void @dischargejpc(ptr noundef %0) #0 {
  %2 = alloca ptr, align 8
  store ptr %0, ptr %2, align 8, !tbaa !4
  %3 = load ptr, ptr %2, align 8, !tbaa !4
  %4 = load ptr, ptr %2, align 8, !tbaa !4
  %5 = getelementptr inbounds nuw %struct.FuncState, ptr %4, i32 0, i32 8
  %6 = load i32, ptr %5, align 8, !tbaa !38
  %7 = load ptr, ptr %2, align 8, !tbaa !4
  %8 = getelementptr inbounds nuw %struct.FuncState, ptr %7, i32 0, i32 6
  %9 = load i32, ptr %8, align 8, !tbaa !11
  %10 = load ptr, ptr %2, align 8, !tbaa !4
  %11 = getelementptr inbounds nuw %struct.FuncState, ptr %10, i32 0, i32 6
  %12 = load i32, ptr %11, align 8, !tbaa !11
  call void @patchlistaux(ptr noundef %3, i32 noundef %6, i32 noundef %9, i32 noundef 255, i32 noundef %12)
  %13 = load ptr, ptr %2, align 8, !tbaa !4
  %14 = getelementptr inbounds nuw %struct.FuncState, ptr %13, i32 0, i32 8
  store i32 -1, ptr %14, align 8, !tbaa !38
  ret void
}

; Function Attrs: nounwind uwtable
define internal i32 @luaK_code(ptr noundef %0, i32 noundef %1, i32 noundef %2) #0 {
  %4 = alloca ptr, align 8
  %5 = alloca i32, align 4
  %6 = alloca i32, align 4
  %7 = alloca ptr, align 8
  store ptr %0, ptr %4, align 8, !tbaa !4
  store i32 %1, ptr %5, align 4, !tbaa !9
  store i32 %2, ptr %6, align 4, !tbaa !9
  call void @llvm.lifetime.start.p0(i64 8, ptr %7) #6
  %8 = load ptr, ptr %4, align 8, !tbaa !4
  %9 = getelementptr inbounds nuw %struct.FuncState, ptr %8, i32 0, i32 0
  %10 = load ptr, ptr %9, align 8, !tbaa !21
  store ptr %10, ptr %7, align 8, !tbaa !52
  %11 = load ptr, ptr %4, align 8, !tbaa !4
  call void @dischargejpc(ptr noundef %11)
  %12 = load ptr, ptr %4, align 8, !tbaa !4
  %13 = getelementptr inbounds nuw %struct.FuncState, ptr %12, i32 0, i32 6
  %14 = load i32, ptr %13, align 8, !tbaa !11
  %15 = add nsw i32 %14, 1
  %16 = load ptr, ptr %7, align 8, !tbaa !52
  %17 = getelementptr inbounds nuw %struct.Proto, ptr %16, i32 0, i32 12
  %18 = load i32, ptr %17, align 8, !tbaa !68
  %19 = icmp sgt i32 %15, %18
  br i1 %19, label %20, label %32

20:                                               ; preds = %3
  %21 = load ptr, ptr %4, align 8, !tbaa !4
  %22 = getelementptr inbounds nuw %struct.FuncState, ptr %21, i32 0, i32 4
  %23 = load ptr, ptr %22, align 8, !tbaa !49
  %24 = load ptr, ptr %7, align 8, !tbaa !52
  %25 = getelementptr inbounds nuw %struct.Proto, ptr %24, i32 0, i32 4
  %26 = load ptr, ptr %25, align 8, !tbaa !22
  %27 = load ptr, ptr %7, align 8, !tbaa !52
  %28 = getelementptr inbounds nuw %struct.Proto, ptr %27, i32 0, i32 12
  %29 = call ptr @luaM_growaux_(ptr noundef %23, ptr noundef %26, ptr noundef %28, i64 noundef 4, i32 noundef 2147483645, ptr noundef @.str.3)
  %30 = load ptr, ptr %7, align 8, !tbaa !52
  %31 = getelementptr inbounds nuw %struct.Proto, ptr %30, i32 0, i32 4
  store ptr %29, ptr %31, align 8, !tbaa !22
  br label %32

32:                                               ; preds = %20, %3
  %33 = load i32, ptr %5, align 4, !tbaa !9
  %34 = load ptr, ptr %7, align 8, !tbaa !52
  %35 = getelementptr inbounds nuw %struct.Proto, ptr %34, i32 0, i32 4
  %36 = load ptr, ptr %35, align 8, !tbaa !22
  %37 = load ptr, ptr %4, align 8, !tbaa !4
  %38 = getelementptr inbounds nuw %struct.FuncState, ptr %37, i32 0, i32 6
  %39 = load i32, ptr %38, align 8, !tbaa !11
  %40 = sext i32 %39 to i64
  %41 = getelementptr inbounds i32, ptr %36, i64 %40
  store i32 %33, ptr %41, align 4, !tbaa !9
  %42 = load ptr, ptr %4, align 8, !tbaa !4
  %43 = getelementptr inbounds nuw %struct.FuncState, ptr %42, i32 0, i32 6
  %44 = load i32, ptr %43, align 8, !tbaa !11
  %45 = add nsw i32 %44, 1
  %46 = load ptr, ptr %7, align 8, !tbaa !52
  %47 = getelementptr inbounds nuw %struct.Proto, ptr %46, i32 0, i32 13
  %48 = load i32, ptr %47, align 4, !tbaa !69
  %49 = icmp sgt i32 %45, %48
  br i1 %49, label %50, label %62

50:                                               ; preds = %32
  %51 = load ptr, ptr %4, align 8, !tbaa !4
  %52 = getelementptr inbounds nuw %struct.FuncState, ptr %51, i32 0, i32 4
  %53 = load ptr, ptr %52, align 8, !tbaa !49
  %54 = load ptr, ptr %7, align 8, !tbaa !52
  %55 = getelementptr inbounds nuw %struct.Proto, ptr %54, i32 0, i32 6
  %56 = load ptr, ptr %55, align 8, !tbaa !67
  %57 = load ptr, ptr %7, align 8, !tbaa !52
  %58 = getelementptr inbounds nuw %struct.Proto, ptr %57, i32 0, i32 13
  %59 = call ptr @luaM_growaux_(ptr noundef %53, ptr noundef %56, ptr noundef %58, i64 noundef 4, i32 noundef 2147483645, ptr noundef @.str.3)
  %60 = load ptr, ptr %7, align 8, !tbaa !52
  %61 = getelementptr inbounds nuw %struct.Proto, ptr %60, i32 0, i32 6
  store ptr %59, ptr %61, align 8, !tbaa !67
  br label %62

62:                                               ; preds = %50, %32
  %63 = load i32, ptr %6, align 4, !tbaa !9
  %64 = load ptr, ptr %7, align 8, !tbaa !52
  %65 = getelementptr inbounds nuw %struct.Proto, ptr %64, i32 0, i32 6
  %66 = load ptr, ptr %65, align 8, !tbaa !67
  %67 = load ptr, ptr %4, align 8, !tbaa !4
  %68 = getelementptr inbounds nuw %struct.FuncState, ptr %67, i32 0, i32 6
  %69 = load i32, ptr %68, align 8, !tbaa !11
  %70 = sext i32 %69 to i64
  %71 = getelementptr inbounds i32, ptr %66, i64 %70
  store i32 %63, ptr %71, align 4, !tbaa !9
  %72 = load ptr, ptr %4, align 8, !tbaa !4
  %73 = getelementptr inbounds nuw %struct.FuncState, ptr %72, i32 0, i32 6
  %74 = load i32, ptr %73, align 8, !tbaa !11
  %75 = add nsw i32 %74, 1
  store i32 %75, ptr %73, align 8, !tbaa !11
  call void @llvm.lifetime.end.p0(i64 8, ptr %7) #6
  ret i32 %74
}