; Function Attrs: nounwind uwtable
define internal fastcc i32 @luaK_code(ptr noundef captures(none) %0, i32 noundef %1, i32 noundef %2) unnamed_addr #0 {
  %4 = load ptr, ptr %0, align 8, !tbaa !19
  %5 = getelementptr inbounds nuw i8, ptr %0, i64 56
  %6 = load i32, ptr %5, align 8, !tbaa !36
  %7 = getelementptr inbounds nuw i8, ptr %0, i64 48
  %8 = load i32, ptr %7, align 8, !tbaa !4
  %.not19.i.i = icmp eq i32 %6, -1
  br i1 %.not19.i.i, label %dischargejpc.exit, label %.lr.ph.i.i

.lr.ph.i.i:                                       ; preds = %3
  %9 = getelementptr inbounds nuw i8, ptr %0, i64 24
  br label %10

10:                                               ; preds = %fixjump.exit16.i.i, %.lr.ph.i.i
  %.020.i.i = phi i32 [ %6, %.lr.ph.i.i ], [ %19, %fixjump.exit16.i.i ]
  %.val.i.i = load ptr, ptr %0, align 8, !tbaa !19
  %11 = getelementptr i8, ptr %.val.i.i, i64 24
  %.val.val.i.i = load ptr, ptr %11, align 8, !tbaa !20
  %12 = sext i32 %.020.i.i to i64
  %13 = getelementptr inbounds i32, ptr %.val.val.i.i, i64 %12
  %14 = load i32, ptr %13, align 4, !tbaa !29
  %15 = lshr i32 %14, 14
  %16 = add nsw i32 %15, -131071
  %17 = icmp eq i32 %16, -1
  %18 = add nuw nsw i32 %.020.i.i, 1
  %19 = add nsw i32 %18, %16
  %20 = icmp sgt i32 %.020.i.i, 0
  br i1 %20, label %21, label %28

21:                                               ; preds = %10
  %22 = getelementptr inbounds i8, ptr %13, i64 -4
  %23 = load i32, ptr %22, align 4, !tbaa !29
  %24 = and i32 %23, 63
  %25 = zext nneg i32 %24 to i64
  %26 = getelementptr inbounds nuw [38 x i8], ptr @luaP_opmodes, i64 0, i64 %25
  %27 = load i8, ptr %26, align 1, !tbaa !39
  %.not.i.i.i.i = icmp sgt i8 %27, -1
  br i1 %.not.i.i.i.i, label %28, label %getjumpcontrol.exit.i.i.i

28:                                               ; preds = %21, %10
  br label %getjumpcontrol.exit.i.i.i

getjumpcontrol.exit.i.i.i:                        ; preds = %28, %21
  %29 = phi i32 [ %14, %28 ], [ %23, %21 ]
  %.0.i.i.i.i = phi ptr [ %13, %28 ], [ %22, %21 ]
  %30 = and i32 %29, 63
  %.not.i.i.i = icmp eq i32 %30, 27
  br i1 %.not.i.i.i, label %31, label %39

31:                                               ; preds = %getjumpcontrol.exit.i.i.i
  %32 = lshr i32 %29, 17
  %33 = and i32 %32, 32704
  %34 = and i32 %29, 8372250
  %35 = or i32 %33, %34
  store i32 %35, ptr %.0.i.i.i.i, align 4, !tbaa !29
  %.neg.i.i.i = xor i32 %.020.i.i, -1
  %36 = add i32 %8, %.neg.i.i.i
  %37 = tail call i32 @llvm.abs.i32(i32 %36, i1 true)
  %38 = icmp samesign ugt i32 %37, 131071
  br i1 %38, label %fixjump.exit16.sink.split.sink.split.i.i, label %fixjump.exit16.sink.split.i.i

39:                                               ; preds = %getjumpcontrol.exit.i.i.i
  %.neg.i15.i.i = xor i32 %.020.i.i, -1
  %40 = add i32 %8, %.neg.i15.i.i
  %41 = tail call i32 @llvm.abs.i32(i32 %40, i1 true)
  %42 = icmp samesign ugt i32 %41, 131071
  br i1 %42, label %fixjump.exit16.sink.split.sink.split.i.i, label %fixjump.exit16.i.i

fixjump.exit16.sink.split.sink.split.i.i:         ; preds = %39, %31
  %.sink23.ph.ph.i.i = phi i32 [ %36, %31 ], [ %40, %39 ]
  %43 = load ptr, ptr %9, align 8, !tbaa !30
  tail call void @luaX_syntaxerror(ptr noundef %43, ptr noundef nonnull @.str.1) #8
  br label %fixjump.exit16.sink.split.i.i

fixjump.exit16.sink.split.i.i:                    ; preds = %fixjump.exit16.sink.split.sink.split.i.i, %31
  %.sink23.ph.i.i = phi i32 [ %36, %31 ], [ %.sink23.ph.ph.i.i, %fixjump.exit16.sink.split.sink.split.i.i ]
  %.pre.i.i = load i32, ptr %13, align 4, !tbaa !29
  br label %fixjump.exit16.i.i

fixjump.exit16.i.i:                               ; preds = %fixjump.exit16.sink.split.i.i, %39
  %.sink24.i.i = phi i32 [ %14, %39 ], [ %.pre.i.i, %fixjump.exit16.sink.split.i.i ]
  %.sink23.i.i = phi i32 [ %40, %39 ], [ %.sink23.ph.i.i, %fixjump.exit16.sink.split.i.i ]
  %44 = and i32 %.sink24.i.i, 16383
  %45 = shl i32 %.sink23.i.i, 14
  %46 = add i32 %45, 2147467264
  %47 = or disjoint i32 %46, %44
  store i32 %47, ptr %13, align 4, !tbaa !29
  %.not25.i.i = icmp eq i32 %19, -1
  %.not.i.i = select i1 %17, i1 true, i1 %.not25.i.i
  br i1 %.not.i.i, label %dischargejpc.exit.loopexit, label %10, !llvm.loop !40

dischargejpc.exit.loopexit:                       ; preds = %fixjump.exit16.i.i
  %.pre = load i32, ptr %7, align 8, !tbaa !4
  br label %dischargejpc.exit

dischargejpc.exit:                                ; preds = %dischargejpc.exit.loopexit, %3
  %48 = phi i32 [ %.pre, %dischargejpc.exit.loopexit ], [ %8, %3 ]
  store i32 -1, ptr %5, align 8, !tbaa !36
  %49 = getelementptr inbounds nuw i8, ptr %4, i64 80
  %50 = load i32, ptr %49, align 8, !tbaa !57
  %.not = icmp slt i32 %48, %50
  br i1 %.not, label %dischargejpc.exit._crit_edge, label %51

dischargejpc.exit._crit_edge:                     ; preds = %dischargejpc.exit
  %.phi.trans.insert = getelementptr inbounds nuw i8, ptr %4, i64 24
  %.pre21 = load ptr, ptr %.phi.trans.insert, align 8, !tbaa !20
  br label %57

51:                                               ; preds = %dischargejpc.exit
  %52 = getelementptr inbounds nuw i8, ptr %0, i64 32
  %53 = load ptr, ptr %52, align 8, !tbaa !45
  %54 = getelementptr inbounds nuw i8, ptr %4, i64 24
  %55 = load ptr, ptr %54, align 8, !tbaa !20
  %56 = tail call ptr @luaM_growaux_(ptr noundef %53, ptr noundef %55, ptr noundef nonnull %49, i64 noundef 4, i32 noundef 2147483645, ptr noundef nonnull @.str.3) #8
  store ptr %56, ptr %54, align 8, !tbaa !20
  %.pre22 = load i32, ptr %7, align 8, !tbaa !4
  br label %57

57:                                               ; preds = %dischargejpc.exit._crit_edge, %51
  %58 = phi i32 [ %48, %dischargejpc.exit._crit_edge ], [ %.pre22, %51 ]
  %59 = phi ptr [ %.pre21, %dischargejpc.exit._crit_edge ], [ %56, %51 ]
  %60 = sext i32 %58 to i64
  %61 = getelementptr inbounds i32, ptr %59, i64 %60
  store i32 %1, ptr %61, align 4, !tbaa !29
  %62 = load i32, ptr %7, align 8, !tbaa !4
  %63 = getelementptr inbounds nuw i8, ptr %4, i64 84
  %64 = load i32, ptr %63, align 4, !tbaa !58
  %.not20 = icmp slt i32 %62, %64
  br i1 %.not20, label %._crit_edge, label %65

._crit_edge:                                      ; preds = %57
  %.phi.trans.insert23 = getelementptr inbounds nuw i8, ptr %4, i64 40
  %.pre24 = load ptr, ptr %.phi.trans.insert23, align 8, !tbaa !56
  br label %71

65:                                               ; preds = %57
  %66 = getelementptr inbounds nuw i8, ptr %0, i64 32
  %67 = load ptr, ptr %66, align 8, !tbaa !45
  %68 = getelementptr inbounds nuw i8, ptr %4, i64 40
  %69 = load ptr, ptr %68, align 8, !tbaa !56
  %70 = tail call ptr @luaM_growaux_(ptr noundef %67, ptr noundef %69, ptr noundef nonnull %63, i64 noundef 4, i32 noundef 2147483645, ptr noundef nonnull @.str.3) #8
  store ptr %70, ptr %68, align 8, !tbaa !56
  %.pre25 = load i32, ptr %7, align 8, !tbaa !4
  br label %71

71:                                               ; preds = %._crit_edge, %65
  %72 = phi i32 [ %62, %._crit_edge ], [ %.pre25, %65 ]
  %73 = phi ptr [ %.pre24, %._crit_edge ], [ %70, %65 ]
  %74 = sext i32 %72 to i64
  %75 = getelementptr inbounds i32, ptr %73, i64 %74
  store i32 %2, ptr %75, align 4, !tbaa !29
  %76 = load i32, ptr %7, align 8, !tbaa !4
  %77 = add nsw i32 %76, 1
  store i32 %77, ptr %7, align 8, !tbaa !4
  ret i32 %76
}